target datalayout = "e-m:e-p270:32:32-p271:32:32-p272:64:64-i64:64-i128:128-f80:128-n8:16:32:64-S128"
target triple = "x86_64-pc-linux-gnu"

%struct.cbb_buffer_st = type { ptr, i64, i64, i8 }
%struct.cbb_st = type { ptr, ptr, i64, i8, i8, i8 }

; Function Attrs: nounwind uwtable
define internal i32 @cbb_buffer_reserve(ptr noundef %0, ptr noundef %1, i64 noundef %2) #0 {
  %4 = alloca i32, align 4
  %5 = alloca ptr, align 8
  %6 = alloca ptr, align 8
  %7 = alloca i64, align 8
  %8 = alloca i64, align 8
  %9 = alloca i32, align 4
  %10 = alloca i64, align 8
  %11 = alloca ptr, align 8
  store ptr %0, ptr %5, align 8, !tbaa !15
  store ptr %1, ptr %6, align 8, !tbaa !25
  store i64 %2, ptr %7, align 8, !tbaa !11
  call void @llvm.lifetime.start.p0(i64 8, ptr %8) #7
  %12 = load ptr, ptr %5, align 8, !tbaa !15
  %13 = icmp eq ptr %12, null
  br i1 %13, label %14, label %15

14:                                               ; preds = %3
  store i32 0, ptr %4, align 4
  store i32 1, ptr %9, align 4
  br label %87

15:                                               ; preds = %3
  %16 = load ptr, ptr %5, align 8, !tbaa !15
  %17 = getelementptr inbounds nuw %struct.cbb_buffer_st, ptr %16, i32 0, i32 1
  %18 = load i64, ptr %17, align 8, !tbaa !19
  %19 = load i64, ptr %7, align 8, !tbaa !11
  %20 = add i64 %18, %19
  store i64 %20, ptr %8, align 8, !tbaa !11
  %21 = load i64, ptr %8, align 8, !tbaa !11
  %22 = load ptr, ptr %5, align 8, !tbaa !15
  %23 = getelementptr inbounds nuw %struct.cbb_buffer_st, ptr %22, i32 0, i32 1
  %24 = load i64, ptr %23, align 8, !tbaa !19
  %25 = icmp ult i64 %21, %24
  br i1 %25, label %26, label %27

26:                                               ; preds = %15
  store i32 0, ptr %4, align 4
  store i32 1, ptr %9, align 4
  br label %87

27:                                               ; preds = %15
  %28 = load i64, ptr %8, align 8, !tbaa !11
  %29 = load ptr, ptr %5, align 8, !tbaa !15
  %30 = getelementptr inbounds nuw %struct.cbb_buffer_st, ptr %29, i32 0, i32 2
  %31 = load i64, ptr %30, align 8, !tbaa !20
  %32 = icmp ugt i64 %28, %31
  br i1 %32, label %33, label %74

33:                                               ; preds = %27
  call void @llvm.lifetime.start.p0(i64 8, ptr %10) #7
  %34 = load ptr, ptr %5, align 8, !tbaa !15
  %35 = getelementptr inbounds nuw %struct.cbb_buffer_st, ptr %34, i32 0, i32 2
  %36 = load i64, ptr %35, align 8, !tbaa !20
  %37 = mul i64 %36, 2
  store i64 %37, ptr %10, align 8, !tbaa !11
  call void @llvm.lifetime.start.p0(i64 8, ptr %11) #7
  %38 = load ptr, ptr %5, align 8, !tbaa !15
  %39 = getelementptr inbounds nuw %struct.cbb_buffer_st, ptr %38, i32 0, i32 3
  %40 = load i8, ptr %39, align 8, !tbaa !21
  %41 = icmp ne i8 %40, 0
  br i1 %41, label %43, label %42

42:                                               ; preds = %33
  store i32 0, ptr %4, align 4
  store i32 1, ptr %9, align 4
  br label %71

43:                                               ; preds = %33
  %44 = load i64, ptr %10, align 8, !tbaa !11
  %45 = load ptr, ptr %5, align 8, !tbaa !15
  %46 = getelementptr inbounds nuw %struct.cbb_buffer_st, ptr %45, i32 0, i32 2
  %47 = load i64, ptr %46, align 8, !tbaa !20
  %48 = icmp ult i64 %44, %47
  br i1 %48, label %53, label %49

49:                                               ; preds = %43
  %50 = load i64, ptr %10, align 8, !tbaa !11
  %51 = load i64, ptr %8, align 8, !tbaa !11
  %52 = icmp ult i64 %50, %51
  br i1 %52, label %53, label %55

53:                                               ; preds = %49, %43
  %54 = load i64, ptr %8, align 8, !tbaa !11
  store i64 %54, ptr %10, align 8, !tbaa !11
  br label %55

55:                                               ; preds = %53, %49
  %56 = load ptr, ptr %5, align 8, !tbaa !15
  %57 = getelementptr inbounds nuw %struct.cbb_buffer_st, ptr %56, i32 0, i32 0
  %58 = load ptr, ptr %57, align 8, !tbaa !17
  %59 = load i64, ptr %10, align 8, !tbaa !11
  %60 = call ptr @realloc(ptr noundef %58, i64 noundef %59) #9
  store ptr %60, ptr %11, align 8, !tbaa !13
  %61 = load ptr, ptr %11, align 8, !tbaa !13
  %62 = icmp eq ptr %61, null
  br i1 %62, label %63, label %64

63:                                               ; preds = %55
  store i32 0, ptr %4, align 4
  store i32 1, ptr %9, align 4
  br label %71

64:                                               ; preds = %55
  %65 = load ptr, ptr %11, align 8, !tbaa !13
  %66 = load ptr, ptr %5, align 8, !tbaa !15
  %67 = getelementptr inbounds nuw %struct.cbb_buffer_st, ptr %66, i32 0, i32 0
  store ptr %65, ptr %67, align 8, !tbaa !17
  %68 = load i64, ptr %10, align 8, !tbaa !11
  %69 = load ptr, ptr %5, align 8, !tbaa !15
  %70 = getelementptr inbounds nuw %struct.cbb_buffer_st, ptr %69, i32 0, i32 2
  store i64 %68, ptr %70, align 8, !tbaa !20
  store i32 0, ptr %9, align 4
  br label %71

71:                                               ; preds = %64, %63, %42
  call void @llvm.lifetime.end.p0(i64 8, ptr %11) #7
  call void @llvm.lifetime.end.p0(i64 8, ptr %10) #7
  %72 = load i32, ptr %9, align 4
  switch i32 %72, label %87 [
    i32 0, label %73
  ]

73:                                               ; preds = %71
  br label %74

74:                                               ; preds = %73, %27
  %75 = load ptr, ptr %6, align 8, !tbaa !25
  %76 = icmp ne ptr %75, null
  br i1 %76, label %77, label %86

77:                                               ; preds = %74
  %78 = load ptr, ptr %5, align 8, !tbaa !15
  %79 = getelementptr inbounds nuw %struct.cbb_buffer_st, ptr %78, i32 0, i32 0
  %80 = load ptr, ptr %79, align 8, !tbaa !17
  %81 = load ptr, ptr %5, align 8, !tbaa !15
  %82 = getelementptr inbounds nuw %struct.cbb_buffer_st, ptr %81, i32 0, i32 1
  %83 = load i64, ptr %82, align 8, !tbaa !19
  %84 = getelementptr inbounds nuw i8, ptr %80, i64 %83
  %85 = load ptr, ptr %6, align 8, !tbaa !25
  store ptr %84, ptr %85, align 8, !tbaa !13
  br label %86

86:                                               ; preds = %77, %74
  store i32 1, ptr %4, align 4
  store i32 1, ptr %9, align 4
  br label %87

87:                                               ; preds = %86, %71, %26, %14
  call void @llvm.lifetime.end.p0(i64 8, ptr %8) #7
  %88 = load i32, ptr %4, align 4
  ret i32 %88
}

; Function Attrs: nounwind uwtable
define internal i32 @cbb_buffer_add(ptr noundef %0, ptr noundef %1, i64 noundef %2) #0 {
  %4 = alloca i32, align 4
  %5 = alloca ptr, align 8
  %6 = alloca ptr, align 8
  %7 = alloca i64, align 8
  store ptr %0, ptr %5, align 8, !tbaa !15
  store ptr %1, ptr %6, align 8, !tbaa !25
  store i64 %2, ptr %7, align 8, !tbaa !11
  %8 = load ptr, ptr %5, align 8, !tbaa !15
  %9 = load ptr, ptr %6, align 8, !tbaa !25
  %10 = load i64, ptr %7, align 8, !tbaa !11
  %11 = call i32 @cbb_buffer_reserve(ptr noundef %8, ptr noundef %9, i64 noundef %10)
  %12 = icmp ne i32 %11, 0
  br i1 %12, label %14, label %13

13:                                               ; preds = %3
  store i32 0, ptr %4, align 4
  br label %20

14:                                               ; preds = %3
  %15 = load i64, ptr %7, align 8, !tbaa !11
  %16 = load ptr, ptr %5, align 8, !tbaa !15
  %17 = getelementptr inbounds nuw %struct.cbb_buffer_st, ptr %16, i32 0, i32 1
  %18 = load i64, ptr %17, align 8, !tbaa !19
  %19 = add i64 %18, %15
  store i64 %19, ptr %17, align 8, !tbaa !19
  store i32 1, ptr %4, align 4
  br label %20

20:                                               ; preds = %14, %13
  %21 = load i32, ptr %4, align 4
  ret i32 %21
}

; Function Attrs: nounwind uwtable
define internal i32 @cbb_buffer_add_u(ptr noundef %0, i32 noundef %1, i64 noundef %2) #0 {
  %4 = alloca i32, align 4
  %5 = alloca ptr, align 8
  %6 = alloca i32, align 4
  %7 = alloca i64, align 8
  %8 = alloca ptr, align 8
  %9 = alloca i64, align 8
  %10 = alloca i32, align 4
  store ptr %0, ptr %5, align 8, !tbaa !15
  store i32 %1, ptr %6, align 4, !tbaa !36
  store i64 %2, ptr %7, align 8, !tbaa !11
  call void @llvm.lifetime.start.p0(i64 8, ptr %8) #7
  call void @llvm.lifetime.start.p0(i64 8, ptr %9) #7
  %11 = load i64, ptr %7, align 8, !tbaa !11
  %12 = icmp eq i64 %11, 0
  br i1 %12, label %13, label %14

13:                                               ; preds = %3
  store i32 1, ptr %4, align 4
  store i32 1, ptr %10, align 4
  br label %39

14:                                               ; preds = %3
  %15 = load ptr, ptr %5, align 8, !tbaa !15
  %16 = load i64, ptr %7, align 8, !tbaa !11
  %17 = call i32 @cbb_buffer_add(ptr noundef %15, ptr noundef %8, i64 noundef %16)
  %18 = icmp ne i32 %17, 0
  br i1 %18, label %20, label %19

19:                                               ; preds = %14
  store i32 0, ptr %4, align 4
  store i32 1, ptr %10, align 4
  br label %39

20:                                               ; preds = %14
  %21 = load i64, ptr %7, align 8, !tbaa !11
  %22 = sub i64 %21, 1
  store i64 %22, ptr %9, align 8, !tbaa !11
  br label %23

23:                                               ; preds = %35, %20
  %24 = load i64, ptr %9, align 8, !tbaa !11
  %25 = load i64, ptr %7, align 8, !tbaa !11
  %26 = icmp ult i64 %24, %25
  br i1 %26, label %27, label %38

27:                                               ; preds = %23
  %28 = load i32, ptr %6, align 4, !tbaa !36
  %29 = trunc i32 %28 to i8
  %30 = load ptr, ptr %8, align 8, !tbaa !13
  %31 = load i64, ptr %9, align 8, !tbaa !11
  %32 = getelementptr inbounds nuw i8, ptr %30, i64 %31
  store i8 %29, ptr %32, align 1, !tbaa !33
  %33 = load i32, ptr %6, align 4, !tbaa !36
  %34 = lshr i32 %33, 8
  store i32 %34, ptr %6, align 4, !tbaa !36
  br label %35

35:                                               ; preds = %27
  %36 = load i64, ptr %9, align 8, !tbaa !11
  %37 = add i64 %36, -1
  store i64 %37, ptr %9, align 8, !tbaa !11
  br label %23, !llvm.loop !38

38:                                               ; preds = %23
  store i32 1, ptr %4, align 4
  store i32 1, ptr %10, align 4
  br label %39

39:                                               ; preds = %38, %19, %13
  call void @llvm.lifetime.end.p0(i64 8, ptr %9) #7
  call void @llvm.lifetime.end.p0(i64 8, ptr %8) #7
  %40 = load i32, ptr %4, align 4
  ret i32 %40
}

; Function Attrs: nounwind uwtable
define hidden i32 @CBB_add_u8(ptr noundef %0, i8 noundef zeroext %1) #0 {
  %3 = alloca i32, align 4
  %4 = alloca ptr, align 8
  %5 = alloca i8, align 1
  store ptr %0, ptr %4, align 8, !tbaa !6
  store i8 %1, ptr %5, align 1, !tbaa !33
  %6 = load ptr, ptr %4, align 8, !tbaa !6
  %7 = call i32 @CBB_flush(ptr noundef %6)
  %8 = icmp ne i32 %7, 0
  br i1 %8, label %10, label %9

9:                                                ; preds = %2
  store i32 0, ptr %3, align 4
  br label %17

10:                                               ; preds = %2
  %11 = load ptr, ptr %4, align 8, !tbaa !6
  %12 = getelementptr inbounds nuw %struct.cbb_st, ptr %11, i32 0, i32 0
  %13 = load ptr, ptr %12, align 8, !tbaa !22
  %14 = load i8, ptr %5, align 1, !tbaa !33
  %15 = zext i8 %14 to i32
  %16 = call i32 @cbb_buffer_add_u(ptr noundef %13, i32 noundef %15, i64 noundef 1)
  store i32 %16, ptr %3, align 4
  br label %17

17:                                               ; preds = %10, %9
  %18 = load i32, ptr %3, align 4
  ret i32 %18
}

; Function Attrs: nounwind uwtable
define hidden i32 @CBB_add_asn1_uint64(ptr noundef %0, i64 noundef %1) #0 {
  %3 = alloca i32, align 4
  %4 = alloca ptr, align 8
  %5 = alloca i64, align 8
  %6 = alloca %struct.cbb_st, align 8
  %7 = alloca i64, align 8
  %8 = alloca i32, align 4
  %9 = alloca i32, align 4
  %10 = alloca i8, align 1
  store ptr %0, ptr %4, align 8, !tbaa !6
  store i64 %1, ptr %5, align 8, !tbaa !11
  call void @llvm.lifetime.start.p0(i64 32, ptr %6) #7
  call void @llvm.lifetime.start.p0(i64 8, ptr %7) #7
  call void @llvm.lifetime.start.p0(i64 4, ptr %8) #7
  store i32 0, ptr %8, align 4, !tbaa !36
  %11 = load ptr, ptr %4, align 8, !tbaa !6
  %12 = call i32 @CBB_add_asn1(ptr noundef %11, ptr noundef %6, i8 noundef zeroext 2)
  %13 = icmp ne i32 %12, 0
  br i1 %13, label %15, label %14

14:                                               ; preds = %2
  store i32 0, ptr %3, align 4
  store i32 1, ptr %9, align 4
  br label %66

15:                                               ; preds = %2
  store i64 0, ptr %7, align 8, !tbaa !11
  br label %16

16:                                               ; preds = %53, %15
  %17 = load i64, ptr %7, align 8, !tbaa !11
  %18 = icmp ult i64 %17, 8
  br i1 %18, label %19, label %56

19:                                               ; preds = %16
  call void @llvm.lifetime.start.p0(i64 1, ptr %10) #7
  %20 = load i64, ptr %5, align 8, !tbaa !11
  %21 = load i64, ptr %7, align 8, !tbaa !11
  %22 = sub i64 7, %21
  %23 = mul i64 8, %22
  %24 = lshr i64 %20, %23
  %25 = and i64 %24, 255
  %26 = trunc i64 %25 to i8
  store i8 %26, ptr %10, align 1, !tbaa !33
  %27 = load i32, ptr %8, align 4, !tbaa !36
  %28 = icmp ne i32 %27, 0
  br i1 %28, label %44, label %29

29:                                               ; preds = %19
  %30 = load i8, ptr %10, align 1, !tbaa !33
  %31 = zext i8 %30 to i32
  %32 = icmp eq i32 %31, 0
  br i1 %32, label %33, label %34

33:                                               ; preds = %29
  store i32 4, ptr %9, align 4
  br label %50

34:                                               ; preds = %29
  %35 = load i8, ptr %10, align 1, !tbaa !33
  %36 = zext i8 %35 to i32
  %37 = and i32 %36, 128
  %38 = icmp ne i32 %37, 0
  br i1 %38, label %39, label %43

39:                                               ; preds = %34
  %40 = call i32 @CBB_add_u8(ptr noundef %6, i8 noundef zeroext 0)
  %41 = icmp ne i32 %40, 0
  br i1 %41, label %43, label %42

42:                                               ; preds = %39
  store i32 0, ptr %3, align 4
  store i32 1, ptr %9, align 4
  br label %50

43:                                               ; preds = %39, %34
  store i32 1, ptr %8, align 4, !tbaa !36
  br label %44

44:                                               ; preds = %43, %19
  %45 = load i8, ptr %10, align 1, !tbaa !33
  %46 = call i32 @CBB_add_u8(ptr noundef %6, i8 noundef zeroext %45)
  %47 = icmp ne i32 %46, 0
  br i1 %47, label %49, label %48

48:                                               ; preds = %44
  store i32 0, ptr %3, align 4
  store i32 1, ptr %9, align 4
  br label %50

49:                                               ; preds = %44
  store i32 0, ptr %9, align 4
  br label %50

50:                                               ; preds = %49, %48, %42, %33
  call void @llvm.lifetime.end.p0(i64 1, ptr %10) #7
  %51 = load i32, ptr %9, align 4
  switch i32 %51, label %66 [
    i32 0, label %52
    i32 4, label %53
  ]

52:                                               ; preds = %50
  br label %53

53:                                               ; preds = %52, %50
  %54 = load i64, ptr %7, align 8, !tbaa !11
  %55 = add i64 %54, 1
  store i64 %55, ptr %7, align 8, !tbaa !11
  br label %16, !llvm.loop !41

56:                                               ; preds = %16
  %57 = load i32, ptr %8, align 4, !tbaa !36
  %58 = icmp ne i32 %57, 0
  br i1 %58, label %63, label %59

59:                                               ; preds = %56
  %60 = call i32 @CBB_add_u8(ptr noundef %6, i8 noundef zeroext 0)
  %61 = icmp ne i32 %60, 0
  br i1 %61, label %63, label %62

62:                                               ; preds = %59
  store i32 0, ptr %3, align 4
  store i32 1, ptr %9, align 4
  br label %66

63:                                               ; preds = %59, %56
  %64 = load ptr, ptr %4, align 8, !tbaa !6
  %65 = call i32 @CBB_flush(ptr noundef %64)
  store i32 %65, ptr %3, align 4
  store i32 1, ptr %9, align 4
  br label %66

66:                                               ; preds = %63, %62, %50, %14
  call void @llvm.lifetime.end.p0(i64 4, ptr %8) #7
  call void @llvm.lifetime.end.p0(i64 8, ptr %7) #7
  call void @llvm.lifetime.end.p0(i64 32, ptr %6) #7
  %67 = load i32, ptr %3, align 4
  ret i32 %67
}