; Function Attrs: nounwind uwtable
define hidden range(i32 0, 2) i32 @CBB_add_asn1_uint64(ptr noundef captures(none) %0, i64 noundef %1) local_unnamed_addr #8 {
  %3 = alloca %struct.cbb_st, align 8
  call void @llvm.lifetime.start.p0(i64 32, ptr nonnull %3) #15
  %4 = call i32 @CBB_add_asn1(ptr noundef %0, ptr noundef nonnull %3, i8 noundef zeroext 2)
  %.not = icmp eq i32 %4, 0
  br i1 %.not, label %.thread, label %.preheader

.preheader:                                       ; preds = %2, %.preheader.backedge
  %.not20 = phi i1 [ %.not20.be, %.preheader.backedge ], [ true, %2 ]
  %.01659 = phi i64 [ %.01659.be, %.preheader.backedge ], [ 0, %2 ]
  %5 = shl nuw nsw i64 %.01659, 3
  %6 = sub nuw nsw i64 56, %5
  %7 = lshr i64 %1, %6
  %8 = trunc i64 %7 to i8
  br i1 %.not20, label %9, label %41

9:                                                ; preds = %.preheader
  %10 = trunc i64 %7 to i32
  %11 = and i32 %10, 255
  %12 = icmp eq i32 %11, 0
  br i1 %12, label %65, label %13

13:                                               ; preds = %9
  %14 = and i32 %10, 128
  %.not21 = icmp eq i32 %14, 0
  br i1 %.not21, label %41, label %15

15:                                               ; preds = %13
  %16 = call i32 @CBB_flush(ptr noundef nonnull %3)
  %.not.i = icmp eq i32 %16, 0
  br i1 %.not.i, label %.thread, label %17

17:                                               ; preds = %15
  %18 = load ptr, ptr %3, align 8, !tbaa !16
  %19 = icmp eq ptr %18, null
  br i1 %19, label %.thread, label %20

20:                                               ; preds = %17
  %21 = getelementptr inbounds nuw i8, ptr %18, i64 8
  %22 = load i64, ptr %21, align 8, !tbaa !13
  %23 = add i64 %22, 1
  %24 = icmp eq i64 %22, -1
  br i1 %24, label %.thread, label %25

25:                                               ; preds = %20
  %26 = getelementptr inbounds nuw i8, ptr %18, i64 16
  %27 = load i64, ptr %26, align 8, !tbaa !14
  %28 = icmp ugt i64 %23, %27
  br i1 %28, label %29, label %.cbb_buffer_add.exit_crit_edge.i.i

.cbb_buffer_add.exit_crit_edge.i.i:               ; preds = %25
  %.pre.i.i = load ptr, ptr %18, align 8, !tbaa !6
  br label %CBB_add_u8.exit

29:                                               ; preds = %25
  %30 = getelementptr inbounds nuw i8, ptr %18, i64 24
  %31 = load i8, ptr %30, align 8, !tbaa !15
  %.not.i.i.i.i = icmp eq i8 %31, 0
  br i1 %.not.i.i.i.i, label %.thread, label %32

32:                                               ; preds = %29
  %33 = shl i64 %27, 1
  %34 = icmp slt i64 %27, 0
  %35 = call i64 @llvm.umax.i64(i64 %33, i64 %23)
  %.026.i.i.i.i = select i1 %34, i64 %23, i64 %35
  %36 = load ptr, ptr %18, align 8, !tbaa !6
  %37 = call ptr @realloc(ptr noundef %36, i64 noundef %.026.i.i.i.i) #16
  %38 = icmp eq ptr %37, null
  br i1 %38, label %.thread, label %.critedge.i.i.i.i

.critedge.i.i.i.i:                                ; preds = %32
  store ptr %37, ptr %18, align 8, !tbaa !6
  store i64 %.026.i.i.i.i, ptr %26, align 8, !tbaa !14
  %.pre.pre.i.i.i = load i64, ptr %21, align 8, !tbaa !13
  %.pre20.i.i = add i64 %.pre.pre.i.i.i, 1
  br label %CBB_add_u8.exit

CBB_add_u8.exit:                                  ; preds = %.cbb_buffer_add.exit_crit_edge.i.i, %.critedge.i.i.i.i
  %.pre-phi.i.i = phi i64 [ %23, %.cbb_buffer_add.exit_crit_edge.i.i ], [ %.pre20.i.i, %.critedge.i.i.i.i ]
  %39 = phi ptr [ %.pre.i.i, %.cbb_buffer_add.exit_crit_edge.i.i ], [ %37, %.critedge.i.i.i.i ]
  %.pre.i.i.i = phi i64 [ %22, %.cbb_buffer_add.exit_crit_edge.i.i ], [ %.pre.pre.i.i.i, %.critedge.i.i.i.i ]
  %40 = getelementptr inbounds nuw i8, ptr %39, i64 %.pre.i.i.i
  store i64 %.pre-phi.i.i, ptr %21, align 8, !tbaa !13
  store i8 0, ptr %40, align 1, !tbaa !27
  br label %41

41:                                               ; preds = %CBB_add_u8.exit, %13, %.preheader
  %42 = call i32 @CBB_flush(ptr noundef nonnull %3)
  %.not.i24 = icmp eq i32 %42, 0
  br i1 %.not.i24, label %.thread, label %43

43:                                               ; preds = %41
  %44 = load ptr, ptr %3, align 8, !tbaa !16
  %45 = icmp eq ptr %44, null
  br i1 %45, label %.thread, label %46

46:                                               ; preds = %43
  %47 = getelementptr inbounds nuw i8, ptr %44, i64 8
  %48 = load i64, ptr %47, align 8, !tbaa !13
  %49 = add i64 %48, 1
  %50 = icmp eq i64 %48, -1
  br i1 %50, label %.thread, label %51

51:                                               ; preds = %46
  %52 = getelementptr inbounds nuw i8, ptr %44, i64 16
  %53 = load i64, ptr %52, align 8, !tbaa !14
  %54 = icmp ugt i64 %49, %53
  br i1 %54, label %55, label %.cbb_buffer_add.exit_crit_edge.i.i25

.cbb_buffer_add.exit_crit_edge.i.i25:             ; preds = %51
  %.pre.i.i26 = load ptr, ptr %44, align 8, !tbaa !6
  br label %.thread61

55:                                               ; preds = %51
  %56 = getelementptr inbounds nuw i8, ptr %44, i64 24
  %57 = load i8, ptr %56, align 8, !tbaa !15
  %.not.i.i.i.i31 = icmp eq i8 %57, 0
  br i1 %.not.i.i.i.i31, label %.thread, label %58

58:                                               ; preds = %55
  %59 = shl i64 %53, 1
  %60 = icmp slt i64 %53, 0
  %61 = call i64 @llvm.umax.i64(i64 %59, i64 %49)
  %.026.i.i.i.i32 = select i1 %60, i64 %49, i64 %61
  %62 = load ptr, ptr %44, align 8, !tbaa !6
  %63 = call ptr @realloc(ptr noundef %62, i64 noundef %.026.i.i.i.i32) #16
  %64 = icmp eq ptr %63, null
  br i1 %64, label %.thread, label %.critedge.i.i.i.i33

.critedge.i.i.i.i33:                              ; preds = %58
  store ptr %63, ptr %44, align 8, !tbaa !6
  store i64 %.026.i.i.i.i32, ptr %52, align 8, !tbaa !14
  %.pre.pre.i.i.i34 = load i64, ptr %47, align 8, !tbaa !13
  %.pre20.i.i35 = add i64 %.pre.pre.i.i.i34, 1
  br label %.thread61

65:                                               ; preds = %9
  %66 = add nuw nsw i64 %.01659, 1
  %exitcond.not = icmp eq i64 %66, 8
  br i1 %exitcond.not, label %70, label %.preheader.backedge

.preheader.backedge:                              ; preds = %65, %.thread61
  %.not20.be = phi i1 [ true, %65 ], [ false, %.thread61 ]
  %.01659.be = phi i64 [ %66, %65 ], [ %69, %.thread61 ]
  br label %.preheader, !llvm.loop !31

.thread61:                                        ; preds = %.critedge.i.i.i.i33, %.cbb_buffer_add.exit_crit_edge.i.i25
  %.pre-phi.i.i28 = phi i64 [ %49, %.cbb_buffer_add.exit_crit_edge.i.i25 ], [ %.pre20.i.i35, %.critedge.i.i.i.i33 ]
  %67 = phi ptr [ %.pre.i.i26, %.cbb_buffer_add.exit_crit_edge.i.i25 ], [ %63, %.critedge.i.i.i.i33 ]
  %.pre.i.i.i29 = phi i64 [ %48, %.cbb_buffer_add.exit_crit_edge.i.i25 ], [ %.pre.pre.i.i.i34, %.critedge.i.i.i.i33 ]
  %68 = getelementptr inbounds nuw i8, ptr %67, i64 %.pre.i.i.i29
  store i64 %.pre-phi.i.i28, ptr %47, align 8, !tbaa !13
  store i8 %8, ptr %68, align 1, !tbaa !27
  %69 = add nuw nsw i64 %.01659, 1
  %exitcond.not64 = icmp eq i64 %69, 8
  br i1 %exitcond.not64, label %.thread66, label %.preheader.backedge

70:                                               ; preds = %65
  %71 = call i32 @CBB_flush(ptr noundef nonnull %3)
  %.not.i37 = icmp eq i32 %71, 0
  br i1 %.not.i37, label %.thread, label %72

72:                                               ; preds = %70
  %73 = load ptr, ptr %3, align 8, !tbaa !16
  %74 = icmp eq ptr %73, null
  br i1 %74, label %.thread, label %75

75:                                               ; preds = %72
  %76 = getelementptr inbounds nuw i8, ptr %73, i64 8
  %77 = load i64, ptr %76, align 8, !tbaa !13
  %78 = add i64 %77, 1
  %79 = icmp eq i64 %77, -1
  br i1 %79, label %.thread, label %80

80:                                               ; preds = %75
  %81 = getelementptr inbounds nuw i8, ptr %73, i64 16
  %82 = load i64, ptr %81, align 8, !tbaa !14
  %83 = icmp ugt i64 %78, %82
  br i1 %83, label %84, label %.cbb_buffer_add.exit_crit_edge.i.i38

.cbb_buffer_add.exit_crit_edge.i.i38:             ; preds = %80
  %.pre.i.i39 = load ptr, ptr %73, align 8, !tbaa !6
  br label %CBB_add_u8.exit49

84:                                               ; preds = %80
  %85 = getelementptr inbounds nuw i8, ptr %73, i64 24
  %86 = load i8, ptr %85, align 8, !tbaa !15
  %.not.i.i.i.i44 = icmp eq i8 %86, 0
  br i1 %.not.i.i.i.i44, label %.thread, label %87

87:                                               ; preds = %84
  %88 = shl i64 %82, 1
  %89 = icmp slt i64 %82, 0
  %90 = call i64 @llvm.umax.i64(i64 %88, i64 %78)
  %.026.i.i.i.i45 = select i1 %89, i64 %78, i64 %90
  %91 = load ptr, ptr %73, align 8, !tbaa !6
  %92 = call ptr @realloc(ptr noundef %91, i64 noundef %.026.i.i.i.i45) #16
  %93 = icmp eq ptr %92, null
  br i1 %93, label %.thread, label %.critedge.i.i.i.i46

.critedge.i.i.i.i46:                              ; preds = %87
  store ptr %92, ptr %73, align 8, !tbaa !6
  store i64 %.026.i.i.i.i45, ptr %81, align 8, !tbaa !14
  %.pre.pre.i.i.i47 = load i64, ptr %76, align 8, !tbaa !13
  %.pre20.i.i48 = add i64 %.pre.pre.i.i.i47, 1
  br label %CBB_add_u8.exit49

CBB_add_u8.exit49:                                ; preds = %.cbb_buffer_add.exit_crit_edge.i.i38, %.critedge.i.i.i.i46
  %.pre-phi.i.i41 = phi i64 [ %78, %.cbb_buffer_add.exit_crit_edge.i.i38 ], [ %.pre20.i.i48, %.critedge.i.i.i.i46 ]
  %94 = phi ptr [ %.pre.i.i39, %.cbb_buffer_add.exit_crit_edge.i.i38 ], [ %92, %.critedge.i.i.i.i46 ]
  %.pre.i.i.i42 = phi i64 [ %77, %.cbb_buffer_add.exit_crit_edge.i.i38 ], [ %.pre.pre.i.i.i47, %.critedge.i.i.i.i46 ]
  %95 = getelementptr inbounds nuw i8, ptr %94, i64 %.pre.i.i.i42
  store i64 %.pre-phi.i.i41, ptr %76, align 8, !tbaa !13
  store i8 0, ptr %95, align 1, !tbaa !27
  br label %.thread66

.thread66:                                        ; preds = %.thread61, %CBB_add_u8.exit49
  %96 = call i32 @CBB_flush(ptr noundef %0)
  br label %.thread

.thread:                                          ; preds = %29, %32, %20, %17, %15, %55, %58, %46, %43, %41, %84, %87, %75, %72, %70, %2, %.thread66
  %.0 = phi i32 [ %96, %.thread66 ], [ 0, %2 ], [ 0, %70 ], [ 0, %72 ], [ 0, %75 ], [ 0, %87 ], [ 0, %84 ], [ 0, %41 ], [ 0, %43 ], [ 0, %46 ], [ 0, %58 ], [ 0, %55 ], [ 0, %15 ], [ 0, %17 ], [ 0, %20 ], [ 0, %32 ], [ 0, %29 ]
  call void @llvm.lifetime.end.p0(i64 32, ptr nonnull %3) #15
  ret i32 %.0
}